; Function Attrs: nounwind uwtable
define hidden void @zim_SimpleXMLElement_children(ptr nocapture noundef readonly %0, ptr nocapture noundef writeonly %1) #1 {
  %3 = alloca ptr, align 8
  %4 = alloca i64, align 8
  %5 = alloca i8, align 1
  store ptr null, ptr %3, align 8
  store i64 0, ptr %4, align 8
  store i8 0, ptr %5, align 1
  %6 = getelementptr inbounds i8, ptr %0, i64 44
  %7 = load i32, ptr %6, align 4
  %8 = call i32 (i32, ptr, ...) @zend_parse_parameters(i32 noundef %7, ptr noundef nonnull @.str.6, ptr noundef nonnull %3, ptr noundef nonnull %4, ptr noundef nonnull %5) #14
  %9 = icmp eq i32 %8, -1
  br i1 %9, label %10, label %13

10:                                               ; preds = %2
  %11 = load ptr, ptr getelementptr inbounds (%struct._zend_executor_globals, ptr @executor_globals, i64 0, i32 50), align 8
  %12 = icmp ne ptr %11, null
  call void @llvm.assume(i1 %12)
  br label %43

13:                                               ; preds = %2
  %14 = getelementptr inbounds i8, ptr %0, i64 32
  %15 = load ptr, ptr %14, align 8
  %16 = getelementptr inbounds i8, ptr %15, i64 -96
  %17 = getelementptr inbounds i8, ptr %15, i64 -44
  %18 = load i32, ptr %17, align 4
  %19 = icmp eq i32 %18, 3
  br i1 %19, label %43, label %20

20:                                               ; preds = %13
  %21 = load ptr, ptr %16, align 8
  %.not = icmp eq ptr %21, null
  br i1 %.not, label %24, label %22

22:                                               ; preds = %20
  %23 = load ptr, ptr %21, align 8
  %.not15 = icmp eq ptr %23, null
  br i1 %.not15, label %24, label %25

24:                                               ; preds = %22, %20
  call void (ptr, ptr, ...) @zend_throw_error(ptr noundef null, ptr noundef nonnull @.str.1) #14
  %.pre = load i32, ptr %17, align 4
  br label %25

25:                                               ; preds = %22, %24
  %26 = phi i32 [ %.pre, %24 ], [ %18, %22 ]
  %.0 = phi ptr [ null, %24 ], [ %23, %22 ]
  %.not6.i = icmp eq i32 %26, 0
  br i1 %.not6.i, label %php_sxe_get_first_node_non_destructive.exit, label %27

27:                                               ; preds = %25
  %28 = load ptr, ptr %16, align 8
  %.not.i.i = icmp eq ptr %28, null
  br i1 %.not.i.i, label %php_sxe_get_first_node_non_destructive.exit.thread, label %29

29:                                               ; preds = %27
  %30 = load ptr, ptr %28, align 8
  %.not14.i.i = icmp eq ptr %30, null
  br i1 %.not14.i.i, label %php_sxe_get_first_node_non_destructive.exit.thread, label %31

php_sxe_get_first_node_non_destructive.exit.thread: ; preds = %27, %29
  call void (ptr, ptr, ...) @zend_throw_error(ptr noundef null, ptr noundef nonnull @.str.1) #14
  br label %43

31:                                               ; preds = %29
  %32 = icmp ult i32 %26, 4
  br i1 %32, label %switch.lookup, label %36

switch.lookup:                                    ; preds = %31
  %switch.tableidx = add nsw i32 %26, -1
  %33 = sext i32 %switch.tableidx to i64
  %switch.gep = getelementptr inbounds [3 x i64], ptr @switch.table.sxe_get_prop_hash, i64 0, i64 %33
  %switch.load = load i64, ptr %switch.gep, align 8
  %34 = getelementptr inbounds i8, ptr %30, i64 %switch.load
  %35 = load ptr, ptr %34, align 8
  br label %36

36:                                               ; preds = %31, %switch.lookup
  %.1.i.i = phi ptr [ %30, %31 ], [ %35, %switch.lookup ]
  %37 = call fastcc ptr @php_sxe_iterator_fetch(ptr noundef nonnull %16, ptr noundef %.1.i.i, i32 noundef 0)
  br label %php_sxe_get_first_node_non_destructive.exit

php_sxe_get_first_node_non_destructive.exit:      ; preds = %25, %36
  %.0.i = phi ptr [ %.0, %25 ], [ %37, %36 ]
  %.not16 = icmp eq ptr %.0.i, null
  br i1 %.not16, label %43, label %38

38:                                               ; preds = %php_sxe_get_first_node_non_destructive.exit
  %39 = load ptr, ptr %3, align 8
  %40 = load i8, ptr %5, align 1
  %41 = and i8 %40, 1
  %42 = zext nneg i8 %41 to i32
  call fastcc void @_node_as_zval(ptr noundef nonnull %16, ptr noundef nonnull %.0.i, ptr noundef %1, i32 noundef 2, ptr noundef null, ptr noundef %39, i32 noundef %42)
  br label %43

43:                                               ; preds = %php_sxe_get_first_node_non_destructive.exit.thread, %php_sxe_get_first_node_non_destructive.exit, %13, %38, %10
  ret void
}